target datalayout = "e-m:e-p270:32:32-p271:32:32-p272:64:64-i64:64-i128:128-f80:128-n8:16:32:64-S128"
target triple = "x86_64-pc-linux-gnu"

@.str.10 = private unnamed_addr constant [9 x i8] c"_PRELOAD\00", align 1
@.str.27 = private unnamed_addr constant [31 x i8] c"no field package.preload['%s']\00", align 1
@.str.28 = private unnamed_addr constant [10 x i8] c":preload:\00", align 1

; Function Attrs: nounwind uwtable
define internal i32 @searcher_preload(ptr noundef %0) #0 {
  %2 = alloca i32, align 4
  %3 = alloca ptr, align 8
  %4 = alloca ptr, align 8
  %5 = alloca i32, align 4
  store ptr %0, ptr %3, align 8, !tbaa !4
  call void @llvm.lifetime.start.p0(i64 8, ptr %4) #6
  %6 = load ptr, ptr %3, align 8, !tbaa !4
  %7 = call ptr @luaL_checklstring(ptr noundef %6, i32 noundef 1, ptr noundef null)
  store ptr %7, ptr %4, align 8, !tbaa !12
  %8 = load ptr, ptr %3, align 8, !tbaa !4
  %9 = call i32 @lua_getfield(ptr noundef %8, i32 noundef -1001000, ptr noundef @.str.10)
  %10 = load ptr, ptr %3, align 8, !tbaa !4
  %11 = load ptr, ptr %4, align 8, !tbaa !12
  %12 = call i32 @lua_getfield(ptr noundef %10, i32 noundef -1, ptr noundef %11)
  %13 = icmp eq i32 %12, 0
  br i1 %13, label %14, label %18

14:                                               ; preds = %1
  %15 = load ptr, ptr %3, align 8, !tbaa !4
  %16 = load ptr, ptr %4, align 8, !tbaa !12
  %17 = call ptr (ptr, ptr, ...) @lua_pushfstring(ptr noundef %15, ptr noundef @.str.27, ptr noundef %16)
  store i32 1, ptr %2, align 4
  store i32 1, ptr %5, align 4
  br label %21

18:                                               ; preds = %1
  %19 = load ptr, ptr %3, align 8, !tbaa !4
  %20 = call ptr @lua_pushstring(ptr noundef %19, ptr noundef @.str.28)
  store i32 2, ptr %2, align 4
  store i32 1, ptr %5, align 4
  br label %21

21:                                               ; preds = %18, %14
  call void @llvm.lifetime.end.p0(i64 8, ptr %4) #6
  %22 = load i32, ptr %2, align 4
  ret i32 %22
}