; Function Attrs: nounwind uwtable
define internal range(i32 1, 3) i32 @searcher_preload(ptr noundef %0) #0 {
  %2 = tail call ptr @luaL_checklstring(ptr noundef %0, i32 noundef 1, ptr noundef null) #7
  %3 = tail call i32 @lua_getfield(ptr noundef %0, i32 noundef -1001000, ptr noundef nonnull @.str.10) #7
  %4 = tail call i32 @lua_getfield(ptr noundef %0, i32 noundef -1, ptr noundef %2) #7
  %5 = icmp eq i32 %4, 0
  br i1 %5, label %6, label %8

6:                                                ; preds = %1
  %7 = tail call ptr (ptr, ptr, ...) @lua_pushfstring(ptr noundef %0, ptr noundef nonnull @.str.27, ptr noundef %2) #7
  br label %10

8:                                                ; preds = %1
  %9 = tail call ptr @lua_pushstring(ptr noundef %0, ptr noundef nonnull @.str.28) #7
  br label %10

10:                                               ; preds = %8, %6
  %.0 = phi i32 [ 1, %6 ], [ 2, %8 ]
  ret i32 %.0
}